; Function Attrs: uwtable
define void @_ZThn16_NK26FilterDevelopabilityPlugin16pythonFilterNameEi(ptr dead_on_unwind noalias nocapture writable writeonly sret(%class.QString) align 8 %0, ptr nocapture noundef readnone %1, i32 noundef %2) unnamed_addr #13 align 2 {
  tail call void @llvm.experimental.noalias.scope.decl(metadata !20)
  %cond.i = icmp eq i32 %2, 0
  br i1 %cond.i, label %4, label %_ZNK26FilterDevelopabilityPlugin16pythonFilterNameEi.exit

4:                                                ; preds = %3
  %5 = tail call noundef ptr @_ZN7QString16fromAscii_helperEPKci(ptr noundef nonnull @.str.9, i32 noundef 34), !noalias !20
  br label %_ZNK26FilterDevelopabilityPlugin16pythonFilterNameEi.exit

_ZNK26FilterDevelopabilityPlugin16pythonFilterNameEi.exit: ; preds = %3, %4
  %storemerge.i = phi ptr [ %5, %4 ], [ @_ZN10QArrayData11shared_nullE, %3 ]
  store ptr %storemerge.i, ptr %0, align 8, !alias.scope !20
  ret void
}